; Function Attrs: mustprogress nofree nounwind willreturn memory(read, argmem: readwrite, inaccessiblemem: none) uwtable
define hidden noundef zeroext i1 @_ZN6google8protobuf20stringpiece_internal11StringPiece14ConsumeFromEndES2_(ptr noundef nonnull align 8 captures(none) dereferenceable(16) %0, ptr readonly captures(none) %1, i64 %2) local_unnamed_addr #4 align 2 {
  %4 = getelementptr inbounds nuw i8, ptr %0, i64 8
  %5 = load i64, ptr %4, align 8, !tbaa !10
  %.not.i = icmp ult i64 %5, %2
  br i1 %.not.i, label %_ZNK6google8protobuf20stringpiece_internal11StringPiece9ends_withES2_.exit.thread, label %_ZNK6google8protobuf20stringpiece_internal11StringPiece9ends_withES2_.exit

_ZNK6google8protobuf20stringpiece_internal11StringPiece9ends_withES2_.exit: ; preds = %3
  %6 = load ptr, ptr %0, align 8, !tbaa !3
  %7 = sub nuw i64 %5, %2
  %8 = getelementptr inbounds nuw i8, ptr %6, i64 %7
  %bcmp.i = tail call i32 @bcmp(ptr %8, ptr %1, i64 %2)
  %9 = icmp eq i32 %bcmp.i, 0
  br i1 %9, label %10, label %_ZNK6google8protobuf20stringpiece_internal11StringPiece9ends_withES2_.exit.thread

10:                                               ; preds = %_ZNK6google8protobuf20stringpiece_internal11StringPiece9ends_withES2_.exit
  store i64 %7, ptr %4, align 8, !tbaa !10
  br label %_ZNK6google8protobuf20stringpiece_internal11StringPiece9ends_withES2_.exit.thread

_ZNK6google8protobuf20stringpiece_internal11StringPiece9ends_withES2_.exit.thread: ; preds = %3, %_ZNK6google8protobuf20stringpiece_internal11StringPiece9ends_withES2_.exit, %10
  %11 = phi i1 [ false, %_ZNK6google8protobuf20stringpiece_internal11StringPiece9ends_withES2_.exit ], [ true, %10 ], [ false, %3 ]
  ret i1 %11
}